target datalayout = "e-m:e-p270:32:32-p271:32:32-p272:64:64-i64:64-i128:128-f80:128-n8:16:32:64-S128"
target triple = "x86_64-pc-linux-gnu"

%struct.SDL_WaylandSeat = type { ptr, ptr, ptr, ptr, ptr, %struct.wl_list, i32, i32, %struct.anon, %struct.anon.1, %struct.anon.4, %struct.anon.5, %struct.anon.6 }
%struct.wl_list = type { ptr, ptr }
%struct.anon = type { ptr, ptr, ptr, ptr, ptr, %struct.SDL_WaylandKeyboardRepeat, i64, i16, i16, i32, i8, %struct.anon.0 }
%struct.SDL_WaylandKeyboardRepeat = type { i32, i32, i32, i8, i8, i32, i64, i64, i64, i32, [8 x i8] }
%struct.anon.0 = type { ptr, ptr, ptr, ptr, i32, i32, i32, i32, i32, i32, i32, i32, i32, i32, i32 }
%struct.anon.1 = type { ptr, ptr, ptr, ptr, ptr, ptr, ptr, ptr, i64, i32, i32, %struct.SDL_Point, i32, %struct.anon.2, %struct.anon.3 }
%struct.SDL_Point = type { i32, i32 }
%struct.anon.2 = type { i32, float, i32, float, i64, i32 }
%struct.anon.3 = type { ptr, ptr, ptr, i64, i64, i32 }
%struct.anon.4 = type { ptr, ptr, i64, %struct.wl_list }
%struct.anon.5 = type { ptr, %struct.SDL_Rect, i8, i8 }
%struct.SDL_Rect = type { i32, i32, i32, i32 }
%struct.anon.6 = type { ptr, %struct.wl_list }

@.str.27 = private unnamed_addr constant [8 x i8] c"%s (%s)\00", align 1
@.str.28 = private unnamed_addr constant [21 x i8] c"Virtual core pointer\00", align 1
@.str.30 = private unnamed_addr constant [19 x i8] c"Virtual core touch\00", align 1
@.str.32 = private unnamed_addr constant [22 x i8] c"Virtual core keyboard\00", align 1

; Function Attrs: nounwind uwtable
define internal void @seat_handle_name(ptr noundef %0, ptr noundef %1, ptr noundef %2) #0 {
  %4 = alloca ptr, align 8
  %5 = alloca ptr, align 8
  %6 = alloca ptr, align 8
  %7 = alloca ptr, align 8
  %8 = alloca [256 x i8], align 16
  store ptr %0, ptr %4, align 8
  store ptr %1, ptr %5, align 8
  store ptr %2, ptr %6, align 8
  call void @llvm.lifetime.start.p0(i64 8, ptr %7) #10
  %9 = load ptr, ptr %4, align 8
  store ptr %9, ptr %7, align 8
  call void @llvm.lifetime.start.p0(i64 256, ptr %8) #10
  %10 = load ptr, ptr %6, align 8
  %11 = icmp ne ptr %10, null
  br i1 %11, label %12, label %74

12:                                               ; preds = %3
  %13 = load ptr, ptr %6, align 8
  %14 = load i8, ptr %13, align 1
  %15 = sext i8 %14 to i32
  %16 = icmp ne i32 %15, 0
  br i1 %16, label %17, label %74

17:                                               ; preds = %12
  %18 = load ptr, ptr %6, align 8
  %19 = call noalias ptr @SDL_strdup_REAL(ptr noundef %18)
  %20 = load ptr, ptr %7, align 8
  %21 = getelementptr inbounds nuw %struct.SDL_WaylandSeat, ptr %20, i32 0, i32 4
  store ptr %19, ptr %21, align 8
  %22 = load ptr, ptr %7, align 8
  %23 = getelementptr inbounds nuw %struct.SDL_WaylandSeat, ptr %22, i32 0, i32 8
  %24 = getelementptr inbounds nuw %struct.anon, ptr %23, i32 0, i32 0
  %25 = load ptr, ptr %24, align 8
  %26 = icmp ne ptr %25, null
  br i1 %26, label %27, label %38

27:                                               ; preds = %17
  %28 = getelementptr inbounds [256 x i8], ptr %8, i64 0, i64 0
  %29 = load ptr, ptr %7, align 8
  %30 = getelementptr inbounds nuw %struct.SDL_WaylandSeat, ptr %29, i32 0, i32 4
  %31 = load ptr, ptr %30, align 8
  %32 = call i32 (ptr, i64, ptr, ...) @SDL_snprintf_REAL(ptr noundef %28, i64 noundef 256, ptr noundef @.str.27, ptr noundef @.str.32, ptr noundef %31)
  %33 = load ptr, ptr %7, align 8
  %34 = getelementptr inbounds nuw %struct.SDL_WaylandSeat, ptr %33, i32 0, i32 8
  %35 = getelementptr inbounds nuw %struct.anon, ptr %34, i32 0, i32 9
  %36 = load i32, ptr %35, align 4
  %37 = getelementptr inbounds [256 x i8], ptr %8, i64 0, i64 0
  call void @SDL_SetKeyboardName(i32 noundef %36, ptr noundef %37)
  br label %38

38:                                               ; preds = %27, %17
  %39 = load ptr, ptr %7, align 8
  %40 = getelementptr inbounds nuw %struct.SDL_WaylandSeat, ptr %39, i32 0, i32 9
  %41 = getelementptr inbounds nuw %struct.anon.1, ptr %40, i32 0, i32 0
  %42 = load ptr, ptr %41, align 8
  %43 = icmp ne ptr %42, null
  br i1 %43, label %44, label %55

44:                                               ; preds = %38
  %45 = getelementptr inbounds [256 x i8], ptr %8, i64 0, i64 0
  %46 = load ptr, ptr %7, align 8
  %47 = getelementptr inbounds nuw %struct.SDL_WaylandSeat, ptr %46, i32 0, i32 4
  %48 = load ptr, ptr %47, align 8
  %49 = call i32 (ptr, i64, ptr, ...) @SDL_snprintf_REAL(ptr noundef %45, i64 noundef 256, ptr noundef @.str.27, ptr noundef @.str.28, ptr noundef %48)
  %50 = load ptr, ptr %7, align 8
  %51 = getelementptr inbounds nuw %struct.SDL_WaylandSeat, ptr %50, i32 0, i32 9
  %52 = getelementptr inbounds nuw %struct.anon.1, ptr %51, i32 0, i32 12
  %53 = load i32, ptr %52, align 8
  %54 = getelementptr inbounds [256 x i8], ptr %8, i64 0, i64 0
  call void @SDL_SetMouseName(i32 noundef %53, ptr noundef %54)
  br label %55

55:                                               ; preds = %44, %38
  %56 = load ptr, ptr %7, align 8
  %57 = getelementptr inbounds nuw %struct.SDL_WaylandSeat, ptr %56, i32 0, i32 10
  %58 = getelementptr inbounds nuw %struct.anon.4, ptr %57, i32 0, i32 0
  %59 = load ptr, ptr %58, align 8
  %60 = icmp ne ptr %59, null
  br i1 %60, label %61, label %73

61:                                               ; preds = %55
  %62 = getelementptr inbounds [256 x i8], ptr %8, i64 0, i64 0
  %63 = load ptr, ptr %7, align 8
  %64 = getelementptr inbounds nuw %struct.SDL_WaylandSeat, ptr %63, i32 0, i32 4
  %65 = load ptr, ptr %64, align 8
  %66 = call i32 (ptr, i64, ptr, ...) @SDL_snprintf_REAL(ptr noundef %62, i64 noundef 256, ptr noundef @.str.27, ptr noundef @.str.30, ptr noundef %65)
  %67 = load ptr, ptr %7, align 8
  %68 = getelementptr inbounds nuw %struct.SDL_WaylandSeat, ptr %67, i32 0, i32 10
  %69 = getelementptr inbounds nuw %struct.anon.4, ptr %68, i32 0, i32 0
  %70 = load ptr, ptr %69, align 8
  %71 = ptrtoint ptr %70 to i64
  %72 = getelementptr inbounds [256 x i8], ptr %8, i64 0, i64 0
  call void @SDL_SetTouchName(i64 noundef %71, ptr noundef %72)
  br label %73

73:                                               ; preds = %61, %55
  br label %74

74:                                               ; preds = %73, %12, %3
  call void @llvm.lifetime.end.p0(i64 256, ptr %8) #10
  call void @llvm.lifetime.end.p0(i64 8, ptr %7) #10
  ret void
}