; Function Attrs: nounwind uwtable
define internal void @seat_handle_name(ptr noundef captures(none) %0, ptr readnone captures(none) %1, ptr noundef %2) #0 {
  %4 = alloca [256 x i8], align 16
  call void @llvm.lifetime.start.p0(i64 256, ptr nonnull %4) #12
  %.not = icmp eq ptr %2, null
  br i1 %.not, label %32, label %5

5:                                                ; preds = %3
  %6 = load i8, ptr %2, align 1
  %.not14 = icmp eq i8 %6, 0
  br i1 %.not14, label %32, label %7

7:                                                ; preds = %5
  %8 = tail call noalias ptr @SDL_strdup_REAL(ptr noundef nonnull %2) #12
  %9 = getelementptr inbounds nuw i8, ptr %0, i64 32
  store ptr %8, ptr %9, align 8
  %10 = getelementptr inbounds nuw i8, ptr %0, i64 64
  %11 = load ptr, ptr %10, align 8
  %.not15 = icmp eq ptr %11, null
  br i1 %.not15, label %16, label %12

12:                                               ; preds = %7
  %13 = call i32 (ptr, i64, ptr, ...) @SDL_snprintf_REAL(ptr noundef nonnull %4, i64 noundef 256, ptr noundef nonnull @.str.27, ptr noundef nonnull @.str.32, ptr noundef %8) #12
  %14 = getelementptr inbounds nuw i8, ptr %0, i64 180
  %15 = load i32, ptr %14, align 4
  call void @SDL_SetKeyboardName(i32 noundef %15, ptr noundef nonnull %4) #12
  br label %16

16:                                               ; preds = %12, %7
  %17 = getelementptr inbounds nuw i8, ptr %0, i64 272
  %18 = load ptr, ptr %17, align 8
  %.not16 = icmp eq ptr %18, null
  br i1 %.not16, label %24, label %19

19:                                               ; preds = %16
  %20 = load ptr, ptr %9, align 8
  %21 = call i32 (ptr, i64, ptr, ...) @SDL_snprintf_REAL(ptr noundef nonnull %4, i64 noundef 256, ptr noundef nonnull @.str.27, ptr noundef nonnull @.str.28, ptr noundef %20) #12
  %22 = getelementptr inbounds nuw i8, ptr %0, i64 360
  %23 = load i32, ptr %22, align 8
  call void @SDL_SetMouseName(i32 noundef %23, ptr noundef nonnull %4) #12
  br label %24

24:                                               ; preds = %19, %16
  %25 = getelementptr inbounds nuw i8, ptr %0, i64 448
  %26 = load ptr, ptr %25, align 8
  %.not17 = icmp eq ptr %26, null
  br i1 %.not17, label %32, label %27

27:                                               ; preds = %24
  %28 = load ptr, ptr %9, align 8
  %29 = call i32 (ptr, i64, ptr, ...) @SDL_snprintf_REAL(ptr noundef nonnull %4, i64 noundef 256, ptr noundef nonnull @.str.27, ptr noundef nonnull @.str.30, ptr noundef %28) #12
  %30 = load ptr, ptr %25, align 8
  %31 = ptrtoint ptr %30 to i64
  call void @SDL_SetTouchName(i64 noundef %31, ptr noundef nonnull %4) #12
  br label %32

32:                                               ; preds = %24, %27, %5, %3
  call void @llvm.lifetime.end.p0(i64 256, ptr nonnull %4) #12
  ret void
}